target datalayout = "e-m:e-p270:32:32-p271:32:32-p272:64:64-i64:64-i128:128-f80:128-n8:16:32:64-S128"
target triple = "x86_64-pc-linux-gnu"

%"class.boost::core::basic_string_view" = type { ptr, i64 }

; Function Attrs: mustprogress nounwind uwtable
define linkonce_odr hidden noundef signext i8 @_ZN5boost4urls7grammar6detail8to_lowerEc(i8 noundef signext %0) #0 comdat {
  %2 = alloca i8, align 1
  store i8 %0, ptr %2, align 1, !tbaa !9
  %3 = load i8, ptr %2, align 1, !tbaa !9
  %4 = sext i8 %3 to i32
  %5 = icmp sge i32 %4, 65
  br i1 %5, label %6, label %15

6:                                                ; preds = %1
  %7 = load i8, ptr %2, align 1, !tbaa !9
  %8 = sext i8 %7 to i32
  %9 = icmp sle i32 %8, 90
  br i1 %9, label %10, label %15

10:                                               ; preds = %6
  %11 = load i8, ptr %2, align 1, !tbaa !9
  %12 = sext i8 %11 to i32
  %13 = add nsw i32 %12, 97
  %14 = sub nsw i32 %13, 65
  br label %18

15:                                               ; preds = %6, %1
  %16 = load i8, ptr %2, align 1, !tbaa !9
  %17 = sext i8 %16 to i32
  br label %18

18:                                               ; preds = %15, %10
  %19 = phi i32 [ %14, %10 ], [ %17, %15 ]
  %20 = trunc i32 %19 to i8
  ret i8 %20
}

; Function Attrs: mustprogress nounwind uwtable
define linkonce_odr hidden noundef signext i8 @_ZN5boost4urls7grammar8to_lowerEc(i8 noundef signext %0) #0 comdat {
  %2 = alloca i8, align 1
  store i8 %0, ptr %2, align 1, !tbaa !9
  %3 = load i8, ptr %2, align 1, !tbaa !9
  %4 = call noundef signext i8 @_ZN5boost4urls7grammar6detail8to_lowerEc(i8 noundef signext %3) #2
  ret i8 %4
}

; Function Attrs: mustprogress nounwind uwtable
define linkonce_odr hidden noundef ptr @_ZNK5boost4core17basic_string_viewIcE4dataEv(ptr noundef nonnull align 8 dereferenceable(16) %0) #0 comdat align 2 {
  %2 = alloca ptr, align 8
  store ptr %0, ptr %2, align 8, !tbaa !7
  %3 = load ptr, ptr %2, align 8
  %4 = getelementptr inbounds nuw %"class.boost::core::basic_string_view", ptr %3, i32 0, i32 0
  %5 = load ptr, ptr %4, align 8, !tbaa !15
  ret ptr %5
}

; Function Attrs: mustprogress nounwind uwtable
define linkonce_odr hidden noundef i64 @_ZNK5boost4core17basic_string_viewIcE4sizeEv(ptr noundef nonnull align 8 dereferenceable(16) %0) #0 comdat align 2 {
  %2 = alloca ptr, align 8
  store ptr %0, ptr %2, align 8, !tbaa !7
  %3 = load ptr, ptr %2, align 8
  %4 = getelementptr inbounds nuw %"class.boost::core::basic_string_view", ptr %3, i32 0, i32 1
  %5 = load i64, ptr %4, align 8, !tbaa !13
  ret i64 %5
}

; Function Attrs: mustprogress nounwind uwtable
define noundef i32 @_ZN5boost4urls7grammar10ci_compareENS_4core17basic_string_viewIcEES4_(ptr %0, i64 %1, ptr %2, i64 %3) #0 {
  %5 = alloca i32, align 4
  %6 = alloca %"class.boost::core::basic_string_view", align 8
  %7 = alloca %"class.boost::core::basic_string_view", align 8
  %8 = alloca i32, align 4
  %9 = alloca i64, align 8
  %10 = alloca ptr, align 8
  %11 = alloca ptr, align 8
  %12 = alloca i8, align 1
  %13 = alloca i8, align 1
  %14 = alloca i32, align 4
  %15 = getelementptr inbounds nuw { ptr, i64 }, ptr %6, i32 0, i32 0
  store ptr %0, ptr %15, align 8
  %16 = getelementptr inbounds nuw { ptr, i64 }, ptr %6, i32 0, i32 1
  store i64 %1, ptr %16, align 8
  %17 = getelementptr inbounds nuw { ptr, i64 }, ptr %7, i32 0, i32 0
  store ptr %2, ptr %17, align 8
  %18 = getelementptr inbounds nuw { ptr, i64 }, ptr %7, i32 0, i32 1
  store i64 %3, ptr %18, align 8
  call void @llvm.lifetime.start.p0(i64 4, ptr %8) #2
  call void @llvm.lifetime.start.p0(i64 8, ptr %9) #2
  %19 = call noundef i64 @_ZNK5boost4core17basic_string_viewIcE4sizeEv(ptr noundef nonnull align 8 dereferenceable(16) %6) #2
  %20 = call noundef i64 @_ZNK5boost4core17basic_string_viewIcE4sizeEv(ptr noundef nonnull align 8 dereferenceable(16) %7) #2
  %21 = icmp ult i64 %19, %20
  br i1 %21, label %22, label %24

22:                                               ; preds = %4
  store i32 -1, ptr %8, align 4, !tbaa !17
  %23 = call noundef i64 @_ZNK5boost4core17basic_string_viewIcE4sizeEv(ptr noundef nonnull align 8 dereferenceable(16) %6) #2
  store i64 %23, ptr %9, align 8, !tbaa !3
  br label %32

24:                                               ; preds = %4
  %25 = call noundef i64 @_ZNK5boost4core17basic_string_viewIcE4sizeEv(ptr noundef nonnull align 8 dereferenceable(16) %6) #2
  %26 = call noundef i64 @_ZNK5boost4core17basic_string_viewIcE4sizeEv(ptr noundef nonnull align 8 dereferenceable(16) %7) #2
  %27 = icmp ugt i64 %25, %26
  br i1 %27, label %28, label %29

28:                                               ; preds = %24
  store i32 1, ptr %8, align 4, !tbaa !17
  br label %30

29:                                               ; preds = %24
  store i32 0, ptr %8, align 4, !tbaa !17
  br label %30

30:                                               ; preds = %29, %28
  %31 = call noundef i64 @_ZNK5boost4core17basic_string_viewIcE4sizeEv(ptr noundef nonnull align 8 dereferenceable(16) %7) #2
  store i64 %31, ptr %9, align 8, !tbaa !3
  br label %32

32:                                               ; preds = %30, %22
  call void @llvm.lifetime.start.p0(i64 8, ptr %10) #2
  %33 = call noundef ptr @_ZNK5boost4core17basic_string_viewIcE4dataEv(ptr noundef nonnull align 8 dereferenceable(16) %6) #2
  store ptr %33, ptr %10, align 8, !tbaa !7
  call void @llvm.lifetime.start.p0(i64 8, ptr %11) #2
  %34 = call noundef ptr @_ZNK5boost4core17basic_string_viewIcE4dataEv(ptr noundef nonnull align 8 dereferenceable(16) %7) #2
  store ptr %34, ptr %11, align 8, !tbaa !7
  br label %35

35:                                               ; preds = %62, %32
  %36 = load i64, ptr %9, align 8, !tbaa !3
  %37 = add i64 %36, -1
  store i64 %37, ptr %9, align 8, !tbaa !3
  %38 = icmp ne i64 %36, 0
  br i1 %38, label %39, label %64

39:                                               ; preds = %35
  call void @llvm.lifetime.start.p0(i64 1, ptr %12) #2
  %40 = load ptr, ptr %10, align 8, !tbaa !7
  %41 = getelementptr inbounds nuw i8, ptr %40, i32 1
  store ptr %41, ptr %10, align 8, !tbaa !7
  %42 = load i8, ptr %40, align 1, !tbaa !9
  %43 = call noundef signext i8 @_ZN5boost4urls7grammar8to_lowerEc(i8 noundef signext %42) #2
  store i8 %43, ptr %12, align 1, !tbaa !9
  call void @llvm.lifetime.start.p0(i64 1, ptr %13) #2
  %44 = load ptr, ptr %11, align 8, !tbaa !7
  %45 = getelementptr inbounds nuw i8, ptr %44, i32 1
  store ptr %45, ptr %11, align 8, !tbaa !7
  %46 = load i8, ptr %44, align 1, !tbaa !9
  %47 = call noundef signext i8 @_ZN5boost4urls7grammar8to_lowerEc(i8 noundef signext %46) #2
  store i8 %47, ptr %13, align 1, !tbaa !9
  %48 = load i8, ptr %12, align 1, !tbaa !9
  %49 = sext i8 %48 to i32
  %50 = load i8, ptr %13, align 1, !tbaa !9
  %51 = sext i8 %50 to i32
  %52 = icmp eq i32 %49, %51
  br i1 %52, label %53, label %54

53:                                               ; preds = %39
  store i32 2, ptr %14, align 4
  br label %62, !llvm.loop !19

54:                                               ; preds = %39
  %55 = load i8, ptr %12, align 1, !tbaa !9
  %56 = sext i8 %55 to i32
  %57 = load i8, ptr %13, align 1, !tbaa !9
  %58 = sext i8 %57 to i32
  %59 = icmp slt i32 %56, %58
  br i1 %59, label %60, label %61

60:                                               ; preds = %54
  store i32 -1, ptr %5, align 4
  store i32 1, ptr %14, align 4
  br label %62

61:                                               ; preds = %54
  store i32 1, ptr %5, align 4
  store i32 1, ptr %14, align 4
  br label %62

62:                                               ; preds = %61, %60, %53
  call void @llvm.lifetime.end.p0(i64 1, ptr %13) #2
  call void @llvm.lifetime.end.p0(i64 1, ptr %12) #2
  %63 = load i32, ptr %14, align 4
  switch i32 %63, label %66 [
    i32 2, label %35
  ]

64:                                               ; preds = %35
  %65 = load i32, ptr %8, align 4, !tbaa !17
  store i32 %65, ptr %5, align 4
  store i32 1, ptr %14, align 4
  br label %66

66:                                               ; preds = %64, %62
  call void @llvm.lifetime.end.p0(i64 8, ptr %11) #2
  call void @llvm.lifetime.end.p0(i64 8, ptr %10) #2
  call void @llvm.lifetime.end.p0(i64 8, ptr %9) #2
  call void @llvm.lifetime.end.p0(i64 4, ptr %8) #2
  %67 = load i32, ptr %5, align 4
  ret i32 %67
}