; Function Attrs: mustprogress nofree norecurse nosync nounwind willreturn memory(argmem: read) uwtable
define noundef i32 @_ZN5boost4urls7grammar10ci_compareENS_4core17basic_string_viewIcEES4_(ptr nocapture readonly %0, i64 %1, ptr nocapture readonly %2, i64 %3) local_unnamed_addr #0 {
  %.014 = tail call i64 @llvm.umin.i64(i64 %1, i64 %3)
  %.010 = tail call i32 @llvm.ucmp.i32.i64(i64 %1, i64 %3)
  br label %5

5:                                                ; preds = %6, %4
  %.115 = phi i64 [ %.014, %4 ], [ %7, %6 ]
  %.013 = phi ptr [ %0, %4 ], [ %8, %6 ]
  %.012 = phi ptr [ %2, %4 ], [ %13, %6 ]
  %.not = icmp eq i64 %.115, 0
  br i1 %.not, label %.split.loop.exit, label %6

6:                                                ; preds = %5
  %7 = add i64 %.115, -1
  %8 = getelementptr inbounds nuw i8, ptr %.013, i64 1
  %9 = load i8, ptr %.013, align 1, !tbaa !3
  %10 = add i8 %9, -65
  %or.cond.i.i = icmp ult i8 %10, 26
  %11 = add nuw nsw i8 %9, 32
  %12 = select i1 %or.cond.i.i, i8 %11, i8 %9
  %13 = getelementptr inbounds nuw i8, ptr %.012, i64 1
  %14 = load i8, ptr %.012, align 1, !tbaa !3
  %15 = add i8 %14, -65
  %or.cond.i.i19 = icmp ult i8 %15, 26
  %16 = add nuw nsw i8 %14, 32
  %17 = select i1 %or.cond.i.i19, i8 %16, i8 %14
  %18 = icmp eq i8 %12, %17
  br i1 %18, label %5, label %.split.loop.exit26

.split.loop.exit26:                               ; preds = %6
  %19 = icmp slt i8 %12, %17
  %.18.le = select i1 %19, i32 -1, i32 1
  br label %.split.loop.exit

.split.loop.exit:                                 ; preds = %5, %.split.loop.exit26
  %.2 = phi i32 [ %.18.le, %.split.loop.exit26 ], [ %.010, %5 ]
  ret i32 %.2
}